; Function Attrs: null_pointer_is_valid sspstrong uwtable
define range(i32 -6, 1) i32 @wtap_block_add_bytes_option(ptr noundef readonly captures(address_is_null) %0, i32 noundef %1, ptr noundef %2, i64 noundef %3) local_unnamed_addr #0 {
  %5 = icmp eq ptr %0, null
  br i1 %5, label %wtap_block_add_option_common.exit.thread, label %6

6:                                                ; preds = %4
  %7 = load ptr, ptr %0, align 8
  %8 = getelementptr inbounds nuw i8, ptr %7, i64 48
  %9 = load ptr, ptr %8, align 8
  %10 = zext i32 %1 to i64
  %11 = inttoptr i64 %10 to ptr
  %12 = tail call ptr @g_hash_table_lookup(ptr noundef %9, ptr noundef %11)
  %13 = icmp eq ptr %12, null
  br i1 %13, label %wtap_block_add_option_common.exit.thread, label %14

14:                                               ; preds = %6
  %15 = getelementptr inbounds nuw i8, ptr %12, i64 16
  %16 = load i32, ptr %15, align 8
  %.not.i = icmp eq i32 %16, 4
  br i1 %.not.i, label %17, label %wtap_block_add_option_common.exit.thread

17:                                               ; preds = %14
  %18 = getelementptr inbounds nuw i8, ptr %12, i64 20
  %19 = load i32, ptr %18, align 4
  %20 = and i32 %19, 1
  %.not20.i = icmp eq i32 %20, 0
  %21 = getelementptr inbounds nuw i8, ptr %0, i64 16
  %22 = load ptr, ptr %21, align 8
  %23 = getelementptr inbounds nuw i8, ptr %22, i64 8
  %24 = load i32, ptr %23, align 8
  br i1 %.not20.i, label %25, label %.loopexit

25:                                               ; preds = %17
  %.not.i.i = icmp eq i32 %24, 0
  br i1 %.not.i.i, label %.loopexit, label %.lr.ph.i.i

.lr.ph.i.i:                                       ; preds = %25
  %26 = load ptr, ptr %22, align 8
  %wide.trip.count.i.i = zext i32 %24 to i64
  br label %28

27:                                               ; preds = %28
  %indvars.iv.next.i.i = add nuw nsw i64 %indvars.iv.i.i, 1
  %exitcond.not.i.i = icmp eq i64 %indvars.iv.next.i.i, %wide.trip.count.i.i
  br i1 %exitcond.not.i.i, label %.loopexit, label %28, !llvm.loop !11

28:                                               ; preds = %27, %.lr.ph.i.i
  %indvars.iv.i.i = phi i64 [ 0, %.lr.ph.i.i ], [ %indvars.iv.next.i.i, %27 ]
  %29 = getelementptr %struct.wtap_option_t, ptr %26, i64 %indvars.iv.i.i
  %30 = load i32, ptr %29, align 8
  %31 = icmp eq i32 %30, %1
  br i1 %31, label %wtap_block_add_option_common.exit.thread, label %27

.loopexit:                                        ; preds = %27, %25, %17
  %32 = phi i32 [ 0, %25 ], [ %24, %17 ], [ %24, %27 ]
  %33 = add i32 %32, 1
  %34 = tail call ptr @g_array_set_size(ptr noundef %22, i32 noundef %33)
  %35 = load ptr, ptr %21, align 8
  %36 = load ptr, ptr %35, align 8
  %37 = zext i32 %32 to i64
  %38 = getelementptr %struct.wtap_option_t, ptr %36, i64 %37
  store i32 %1, ptr %38, align 8
  %39 = tail call ptr @g_bytes_new(ptr noundef %2, i64 noundef %3)
  %40 = getelementptr inbounds nuw i8, ptr %38, i64 8
  store ptr %39, ptr %40, align 8
  br label %wtap_block_add_option_common.exit.thread

wtap_block_add_option_common.exit.thread:         ; preds = %28, %14, %6, %4, %.loopexit
  %.0 = phi i32 [ 0, %.loopexit ], [ -3, %14 ], [ -1, %6 ], [ -6, %4 ], [ -5, %28 ]
  ret i32 %.0
}